; Function Attrs: mustprogress nounwind uwtable
define void @_ZN8WasmEdge7FileMgr7setCodeEN5cxx204spanIKhLm18446744073709551615EEE(ptr dead_on_unwind noalias writable writeonly sret(%"class.cxx20::expected") align 4 captures(none) initializes((0, 8)) %0, ptr noundef nonnull align 8 dereferenceable(88) initializes((0, 4), (8, 40)) %1, ptr %2, i64 %3) local_unnamed_addr #0 align 2 personality ptr @__gxx_personality_v0 {
  store i32 258, ptr %1, align 8
  %5 = getelementptr inbounds nuw i8, ptr %1, i64 8
  %6 = getelementptr inbounds nuw i8, ptr %1, i64 48
  tail call void @llvm.memset.p0.i64(ptr noundef nonnull align 8 dereferenceable(32) %5, i8 0, i64 32, i1 false)
  %7 = load i8, ptr %6, align 8
  %8 = trunc i8 %7 to i1
  br i1 %8, label %9, label %_ZNSt8optionalIN8WasmEdge4MMapEE5resetEv.exit.i

9:                                                ; preds = %4
  %10 = getelementptr inbounds nuw i8, ptr %1, i64 40
  store i8 0, ptr %6, align 8
  tail call void @_ZN8WasmEdge4MMapD1Ev(ptr noundef nonnull align 8 dereferenceable(16) %10) #19
  br label %_ZNSt8optionalIN8WasmEdge4MMapEE5resetEv.exit.i

_ZNSt8optionalIN8WasmEdge4MMapEE5resetEv.exit.i:  ; preds = %9, %4
  %11 = getelementptr inbounds nuw i8, ptr %1, i64 80
  %12 = load i8, ptr %11, align 8
  %13 = trunc i8 %12 to i1
  br i1 %13, label %14, label %_ZN8WasmEdge7FileMgr5resetEv.exit

14:                                               ; preds = %_ZNSt8optionalIN8WasmEdge4MMapEE5resetEv.exit.i
  %15 = getelementptr inbounds nuw i8, ptr %1, i64 56
  store i8 0, ptr %11, align 8
  %16 = load ptr, ptr %15, align 8
  %.not.i.i.i.i.i.i.i.i = icmp eq ptr %16, null
  br i1 %.not.i.i.i.i.i.i.i.i, label %_ZN8WasmEdge7FileMgr5resetEv.exit, label %17

17:                                               ; preds = %14
  %18 = getelementptr inbounds nuw i8, ptr %1, i64 72
  %19 = load ptr, ptr %18, align 8
  %20 = ptrtoint ptr %19 to i64
  %21 = ptrtoint ptr %16 to i64
  %22 = sub i64 %20, %21
  tail call void @_ZdlPvm(ptr noundef nonnull %16, i64 noundef %22) #20
  br label %_ZN8WasmEdge7FileMgr5resetEv.exit

_ZN8WasmEdge7FileMgr5resetEv.exit:                ; preds = %_ZNSt8optionalIN8WasmEdge4MMapEE5resetEv.exit.i, %14, %17
  %23 = getelementptr inbounds nuw i8, ptr %1, i64 32
  store ptr %2, ptr %23, align 8
  %24 = getelementptr inbounds nuw i8, ptr %1, i64 24
  store i64 %3, ptr %24, align 8
  store i32 0, ptr %1, align 8
  store i64 1, ptr %0, align 4
  ret void
}